(dp0
V2018-02-10T00:00:00Z
p1
I342
sV2018-02-06T00:00:00Z
p2
I142
sV2018-02-18T00:00:00Z
p3
I1113
sV2018-02-15T00:00:00Z
p4
I2547
sV2018-02-05T00:00:00Z
p5
I595
sV2018-02-08T00:00:00Z
p6
I443
sV2018-02-14T00:00:00Z
p7
I1359
sV2018-02-11T00:00:00Z
p8
I447
sV2018-02-09T00:00:00Z
p9
I898
sV2018-02-12T00:00:00Z
p10
I166
sV2018-02-19T00:00:00Z
p11
I245
sV2018-02-04T00:00:00Z
p12
I262
sV2018-02-07T00:00:00Z
p13
I543
sV2018-02-17T00:00:00Z
p14
I308
sV2018-02-16T00:00:00Z
p15
I764
sV2018-02-13T00:00:00Z
p16
I394
s.