(dp0
V2018-02-06T00:00:00Z
p1
I136
sV2018-02-15T00:00:00Z
p2
I7
sV2018-02-05T00:00:00Z
p3
I15
sV2018-02-12T00:00:00Z
p4
I1
sV2018-02-07T00:00:00Z
p5
I55
sV2018-02-17T00:00:00Z
p6
I33
sV2018-02-13T00:00:00Z
p7
I7
s.